target datalayout = "e-m:e-p270:32:32-p271:32:32-p272:64:64-i64:64-i128:128-f80:128-n8:16:32:64-S128"
target triple = "x86_64-pc-linux-gnu"

%struct.HandlerChain_ = type { ptr }
%struct.EventHandlerRestricted_HandlerNode_ = type { %struct.HandlerNode_, %struct.EventHandlerPrivate_Data_ }
%struct.HandlerNode_ = type { i32, i32, i8, i8, i32 }
%struct.EventHandlerPrivate_Data_ = type { ptr, ptr, ptr, ptr }

@stderr = external global ptr, align 8
@.str = private unnamed_addr constant [17 x i8] c"JDWP exit error \00", align 1
@.str.1 = private unnamed_addr constant [2 x i8] c"\0A\00", align 1
@.str.2 = private unnamed_addr constant [19 x i8] c"%s(%d): %s [%s:%d]\00", align 1
@.str.3 = private unnamed_addr constant [23 x i8] c"iterator function NULL\00", align 1
@.str.4 = private unnamed_addr constant [55 x i8] c"src/jdk.jdwp.agent/share/native/libjdwp/eventHandler.c\00", align 1
@.str.24 = private unnamed_addr constant [22 x i8] c"bad index for handler\00", align 1
@__handlers = internal global [22 x %struct.HandlerChain_] zeroinitializer, align 16

; Function Attrs: nounwind uwtable
define internal ptr @getHandlerChain(i32 noundef %0) #0 {
  %2 = alloca i32, align 4
  store i32 %0, ptr %2, align 4
  %3 = load i32, ptr %2, align 4
  %4 = icmp ult i32 %3, 1
  br i1 %4, label %8, label %5

5:                                                ; preds = %1
  %6 = load i32, ptr %2, align 4
  %7 = icmp ugt i32 %6, 22
  br i1 %7, label %8, label %11

8:                                                ; preds = %5, %1
  %9 = load ptr, ptr @stderr, align 8
  %10 = call ptr @jvmtiErrorText(i32 noundef 204)
  call void (ptr, ptr, ptr, ptr, ...) @print_message(ptr noundef %9, ptr noundef @.str, ptr noundef @.str.1, ptr noundef @.str.2, ptr noundef %10, i32 noundef 204, ptr noundef @.str.24, ptr noundef @.str.4, i32 noundef 189)
  call void @debugInit_exit(i32 noundef 204, ptr noundef @.str.24)
  br label %11

11:                                               ; preds = %8, %5
  %12 = load i32, ptr %2, align 4
  %13 = sub i32 %12, 1
  %14 = zext i32 %13 to i64
  %15 = getelementptr inbounds [22 x %struct.HandlerChain_], ptr @__handlers, i64 0, i64 %14
  ret ptr %15
}

; Function Attrs: nounwind uwtable
define hidden zeroext i8 @eventHandlerRestricted_iterator(i32 noundef %0, ptr noundef %1, ptr noundef %2) #0 {
  %4 = alloca i8, align 1
  %5 = alloca i32, align 4
  %6 = alloca ptr, align 8
  %7 = alloca ptr, align 8
  %8 = alloca ptr, align 8
  %9 = alloca ptr, align 8
  %10 = alloca ptr, align 8
  store i32 %0, ptr %5, align 4
  store ptr %1, ptr %6, align 8
  store ptr %2, ptr %7, align 8
  %11 = load i32, ptr %5, align 4
  %12 = call ptr @getHandlerChain(i32 noundef %11)
  store ptr %12, ptr %8, align 8
  %13 = load ptr, ptr %8, align 8
  %14 = getelementptr inbounds %struct.HandlerChain_, ptr %13, i32 0, i32 0
  %15 = load ptr, ptr %14, align 8
  store ptr %15, ptr %9, align 8
  %16 = call ptr @getEnv()
  store ptr %16, ptr %10, align 8
  %17 = load ptr, ptr %6, align 8
  %18 = icmp eq ptr %17, null
  br i1 %18, label %19, label %22

19:                                               ; preds = %3
  %20 = load ptr, ptr @stderr, align 8
  %21 = call ptr @jvmtiErrorText(i32 noundef 181)
  call void (ptr, ptr, ptr, ptr, ...) @print_message(ptr noundef %20, ptr noundef @.str, ptr noundef @.str.1, ptr noundef @.str.2, ptr noundef %21, i32 noundef 181, ptr noundef @.str.3, ptr noundef @.str.4, i32 noundef 262)
  call void @debugInit_exit(i32 noundef 181, ptr noundef @.str.3)
  br label %22

22:                                               ; preds = %19, %3
  br label %23

23:                                               ; preds = %34, %22
  %24 = load ptr, ptr %9, align 8
  %25 = icmp ne ptr %24, null
  br i1 %25, label %26, label %39

26:                                               ; preds = %23
  %27 = load ptr, ptr %6, align 8
  %28 = load ptr, ptr %10, align 8
  %29 = load ptr, ptr %9, align 8
  %30 = load ptr, ptr %7, align 8
  %31 = call zeroext i8 %27(ptr noundef %28, ptr noundef %29, ptr noundef %30)
  %32 = icmp ne i8 %31, 0
  br i1 %32, label %33, label %34

33:                                               ; preds = %26
  store i8 1, ptr %4, align 1
  br label %40

34:                                               ; preds = %26
  %35 = load ptr, ptr %9, align 8
  %36 = getelementptr inbounds %struct.EventHandlerRestricted_HandlerNode_, ptr %35, i32 0, i32 1
  %37 = getelementptr inbounds %struct.EventHandlerPrivate_Data_, ptr %36, i32 0, i32 0
  %38 = load ptr, ptr %37, align 8
  store ptr %38, ptr %9, align 8
  br label %23, !llvm.loop !6

39:                                               ; preds = %23
  store i8 0, ptr %4, align 1
  br label %40

40:                                               ; preds = %39, %33
  %41 = load i8, ptr %4, align 1
  ret i8 %41
}