; Function Attrs: nounwind uwtable
define hidden zeroext range(i8 0, 2) i8 @eventHandlerRestricted_iterator(i32 noundef %0, ptr noundef readonly %1, ptr noundef %2) local_unnamed_addr #0 {
  %4 = add i32 %0, -23
  %or.cond.i = icmp ult i32 %4, -22
  br i1 %or.cond.i, label %5, label %getHandlerChain.exit

5:                                                ; preds = %3
  %6 = load ptr, ptr @stderr, align 8
  %7 = tail call ptr @jvmtiErrorText(i32 noundef 204) #6
  tail call void (ptr, ptr, ptr, ptr, ...) @print_message(ptr noundef %6, ptr noundef nonnull @.str, ptr noundef nonnull @.str.1, ptr noundef nonnull @.str.2, ptr noundef %7, i32 noundef 204, ptr noundef nonnull @.str.24, ptr noundef nonnull @.str.4, i32 noundef 189) #6
  tail call void @debugInit_exit(i32 noundef 204, ptr noundef nonnull @.str.24) #6
  br label %getHandlerChain.exit

getHandlerChain.exit:                             ; preds = %3, %5
  %8 = add i32 %0, -1
  %9 = zext i32 %8 to i64
  %10 = getelementptr inbounds [22 x %struct.HandlerChain_], ptr @__handlers, i64 0, i64 %9
  %11 = load ptr, ptr %10, align 8
  %12 = tail call ptr @getEnv() #6
  %13 = icmp eq ptr %1, null
  br i1 %13, label %14, label %17

14:                                               ; preds = %getHandlerChain.exit
  %15 = load ptr, ptr @stderr, align 8
  %16 = tail call ptr @jvmtiErrorText(i32 noundef 181) #6
  tail call void (ptr, ptr, ptr, ptr, ...) @print_message(ptr noundef %15, ptr noundef nonnull @.str, ptr noundef nonnull @.str.1, ptr noundef nonnull @.str.2, ptr noundef %16, i32 noundef 181, ptr noundef nonnull @.str.3, ptr noundef nonnull @.str.4, i32 noundef 262) #6
  tail call void @debugInit_exit(i32 noundef 181, ptr noundef nonnull @.str.3) #6
  br label %17

17:                                               ; preds = %14, %getHandlerChain.exit
  %.not11 = icmp eq ptr %11, null
  br i1 %.not11, label %._crit_edge, label %.lr.ph

.lr.ph:                                           ; preds = %17, %19
  %.0912 = phi ptr [ %21, %19 ], [ %11, %17 ]
  %18 = tail call zeroext i8 %1(ptr noundef %12, ptr noundef nonnull %.0912, ptr noundef %2) #6
  %.not10 = icmp eq i8 %18, 0
  br i1 %.not10, label %19, label %._crit_edge

19:                                               ; preds = %.lr.ph
  %20 = getelementptr inbounds i8, ptr %.0912, i64 16
  %21 = load ptr, ptr %20, align 8
  %.not = icmp eq ptr %21, null
  br i1 %.not, label %._crit_edge, label %.lr.ph, !llvm.loop !6

._crit_edge:                                      ; preds = %.lr.ph, %19, %17
  %.0 = phi i8 [ 0, %17 ], [ 0, %19 ], [ 1, %.lr.ph ]
  ret i8 %.0
}